; Function Attrs: mustprogress nofree norecurse nosync nounwind willreturn memory(read, argmem: readwrite, inaccessiblemem: none) uwtable
define dso_local void @_ZN4llvm17SwingSchedulerDAG9setMAX_IIEv(ptr nocapture noundef nonnull align 8 dereferenceable(3240) %0) local_unnamed_addr #7 align 2 {
  %2 = load i32, ptr getelementptr inbounds (i8, ptr @_ZL10SwpForceII, i64 128), align 8
  %3 = icmp sgt i32 %2, 0
  br i1 %3, label %12, label %4

4:                                                ; preds = %1
  %5 = getelementptr inbounds nuw i8, ptr %0, i64 2672
  %6 = load i32, ptr %5, align 8
  %.not = icmp eq i32 %6, 0
  br i1 %.not, label %7, label %12

7:                                                ; preds = %4
  %8 = getelementptr inbounds nuw i8, ptr %0, i64 2632
  %9 = load i32, ptr %8, align 8
  %10 = load i32, ptr getelementptr inbounds (i8, ptr @_ZL16SwpIISearchRange, i64 128), align 8
  %11 = add i32 %10, %9
  br label %12

12:                                               ; preds = %4, %1, %7
  %.sink = phi i32 [ %11, %7 ], [ %2, %1 ], [ %6, %4 ]
  %13 = getelementptr inbounds nuw i8, ptr %0, i64 2636
  store i32 %.sink, ptr %13, align 4
  ret void
}